; ModuleID = '49/769.cpp'
source_filename = "49/769.cpp"
target datalayout = "e-m:e-p270:32:32-p271:32:32-p272:64:64-i64:64-f80:128-n8:16:32:64-S128"
target triple = "x86_64-pc-linux-gnu"

%"class.std::ios_base::Init" = type { i8 }
%"class.std::basic_istream" = type { i32 (...)**, i64, %"class.std::basic_ios" }
%"class.std::basic_ios" = type { %"class.std::ios_base", %"class.std::basic_ostream"*, i8, i8, %"class.std::basic_streambuf"*, %"class.std::ctype"*, %"class.std::num_put"*, %"class.std::num_get"* }
%"class.std::ios_base" = type { i32 (...)**, i64, i64, i32, i32, i32, %"struct.std::ios_base::_Callback_list"*, %"struct.std::ios_base::_Words", [8 x %"struct.std::ios_base::_Words"], i32, %"struct.std::ios_base::_Words"*, %"class.std::locale" }
%"struct.std::ios_base::_Callback_list" = type { %"struct.std::ios_base::_Callback_list"*, void (i32, %"class.std::ios_base"*, i32)*, i32, i32 }
%"struct.std::ios_base::_Words" = type { i8*, i64 }
%"class.std::locale" = type { %"class.std::locale::_Impl"* }
%"class.std::locale::_Impl" = type { i32, %"class.std::locale::facet"**, i64, %"class.std::locale::facet"**, i8** }
%"class.std::locale::facet" = type <{ i32 (...)**, i32, [4 x i8] }>
%"class.std::basic_ostream" = type { i32 (...)**, %"class.std::basic_ios" }
%"class.std::basic_streambuf" = type { i32 (...)**, i8*, i8*, i8*, i8*, i8*, i8*, %"class.std::locale" }
%"class.std::ctype" = type <{ %"class.std::locale::facet.base", [4 x i8], %struct.__locale_struct*, i8, [7 x i8], i32*, i32*, i16*, i8, [256 x i8], [256 x i8], i8, [6 x i8] }>
%"class.std::locale::facet.base" = type <{ i32 (...)**, i32 }>
%struct.__locale_struct = type { [13 x %struct.__locale_data*], i16*, i32*, i32*, [13 x i8*] }
%struct.__locale_data = type opaque
%"class.std::num_put" = type { %"class.std::locale::facet.base", [4 x i8] }
%"class.std::num_get" = type { %"class.std::locale::facet.base", [4 x i8] }

@_ZStL8__ioinit = internal global %"class.std::ios_base::Init" zeroinitializer, align 1
@__dso_handle = external hidden global i8
@_ZSt3cin = external dso_local global %"class.std::basic_istream", align 8
@_ZSt4cout = external dso_local global %"class.std::basic_ostream", align 8
@llvm.global_ctors = appending global [1 x { i32, void ()*, i8* }] [{ i32, void ()*, i8* } { i32 65535, void ()* @_GLOBAL__sub_I_769.cpp, i8* null }]

; Function Attrs: noinline uwtable
define internal void @__cxx_global_var_init() #0 section ".text.startup" {
  call void @_ZNSt8ios_base4InitC1Ev(%"class.std::ios_base::Init"* @_ZStL8__ioinit)
  %1 = call i32 @__cxa_atexit(void (i8*)* bitcast (void (%"class.std::ios_base::Init"*)* @_ZNSt8ios_base4InitD1Ev to void (i8*)*), i8* getelementptr inbounds (%"class.std::ios_base::Init", %"class.std::ios_base::Init"* @_ZStL8__ioinit, i32 0, i32 0), i8* @__dso_handle) #3
  ret void
}

declare dso_local void @_ZNSt8ios_base4InitC1Ev(%"class.std::ios_base::Init"*) unnamed_addr #1

; Function Attrs: nounwind
declare dso_local void @_ZNSt8ios_base4InitD1Ev(%"class.std::ios_base::Init"*) unnamed_addr #2

; Function Attrs: nounwind
declare dso_local i32 @__cxa_atexit(void (i8*)*, i8*, i8*) #3

; Function Attrs: noinline norecurse uwtable
define dso_local i32 @main() #4 {
  %1 = alloca i32, align 4
  %2 = alloca [500 x i8], align 16
  %3 = alloca i32, align 4
  %4 = alloca i32, align 4
  %5 = alloca i32, align 4
  %6 = alloca i32, align 4
  %7 = alloca i32, align 4
  store i32 0, i32* %1, align 4
  %8 = getelementptr inbounds [500 x i8], [500 x i8]* %2, i64 0, i64 0
  %9 = call dereferenceable(280) %"class.std::basic_istream"* @_ZNSi7getlineEPcl(%"class.std::basic_istream"* @_ZSt3cin, i8* %8, i64 500)
  %10 = getelementptr inbounds [500 x i8], [500 x i8]* %2, i64 0, i64 0
  %11 = call i64 @strlen(i8* %10) #6
  %12 = trunc i64 %11 to i32
  store i32 %12, i32* %6, align 4
  store i32 2, i32* %3, align 4
  br label %13

13:                                               ; preds = %81, %0
  %14 = load i32, i32* %3, align 4
  %15 = load i32, i32* %6, align 4
  %16 = icmp sle i32 %14, %15
  br i1 %16, label %17, label %84

17:                                               ; preds = %13
  store i32 0, i32* %4, align 4
  br label %18

18:                                               ; preds = %77, %17
  %19 = load i32, i32* %4, align 4
  %20 = load i32, i32* %6, align 4
  %21 = load i32, i32* %3, align 4
  %22 = sub nsw i32 %20, %21
  %23 = icmp sle i32 %19, %22
  br i1 %23, label %24, label %80

24:                                               ; preds = %18
  store i32 1, i32* %7, align 4
  store i32 0, i32* %5, align 4
  br label %25

25:                                               ; preds = %52, %24
  %26 = load i32, i32* %5, align 4
  %27 = load i32, i32* %3, align 4
  %28 = add nsw i32 %27, 1
  %29 = sdiv i32 %28, 2
  %30 = icmp slt i32 %26, %29
  br i1 %30, label %31, label %55

31:                                               ; preds = %25
  %32 = load i32, i32* %4, align 4
  %33 = load i32, i32* %5, align 4
  %34 = add nsw i32 %32, %33
  %35 = sext i32 %34 to i64
  %36 = getelementptr inbounds [500 x i8], [500 x i8]* %2, i64 0, i64 %35
  %37 = load i8, i8* %36, align 1
  %38 = sext i8 %37 to i32
  %39 = load i32, i32* %4, align 4
  %40 = load i32, i32* %3, align 4
  %41 = add nsw i32 %39, %40
  %42 = sub nsw i32 %41, 1
  %43 = load i32, i32* %5, align 4
  %44 = sub nsw i32 %42, %43
  %45 = sext i32 %44 to i64
  %46 = getelementptr inbounds [500 x i8], [500 x i8]* %2, i64 0, i64 %45
  %47 = load i8, i8* %46, align 1
  %48 = sext i8 %47 to i32
  %49 = icmp ne i32 %38, %48
  br i1 %49, label %50, label %51

50:                                               ; preds = %31
  store i32 0, i32* %7, align 4
  br label %55

51:                                               ; preds = %31
  br label %52

52:                                               ; preds = %51
  %53 = load i32, i32* %5, align 4
  %54 = add nsw i32 %53, 1
  store i32 %54, i32* %5, align 4
  br label %25

55:                                               ; preds = %50, %25
  %56 = load i32, i32* %7, align 4
  %57 = icmp ne i32 %56, 0
  br i1 %57, label %58, label %76

58:                                               ; preds = %55
  store i32 0, i32* %5, align 4
  br label %59

59:                                               ; preds = %71, %58
  %60 = load i32, i32* %5, align 4
  %61 = load i32, i32* %3, align 4
  %62 = icmp slt i32 %60, %61
  br i1 %62, label %63, label %74

63:                                               ; preds = %59
  %64 = load i32, i32* %4, align 4
  %65 = load i32, i32* %5, align 4
  %66 = add nsw i32 %64, %65
  %67 = sext i32 %66 to i64
  %68 = getelementptr inbounds [500 x i8], [500 x i8]* %2, i64 0, i64 %67
  %69 = load i8, i8* %68, align 1
  %70 = call dereferenceable(272) %"class.std::basic_ostream"* @_ZStlsISt11char_traitsIcEERSt13basic_ostreamIcT_ES5_c(%"class.std::basic_ostream"* dereferenceable(272) @_ZSt4cout, i8 signext %69)
  br label %71

71:                                               ; preds = %63
  %72 = load i32, i32* %5, align 4
  %73 = add nsw i32 %72, 1
  store i32 %73, i32* %5, align 4
  br label %59

74:                                               ; preds = %59
  %75 = call dereferenceable(272) %"class.std::basic_ostream"* @_ZNSolsEPFRSoS_E(%"class.std::basic_ostream"* @_ZSt4cout, %"class.std::basic_ostream"* (%"class.std::basic_ostream"*)* @_ZSt4endlIcSt11char_traitsIcEERSt13basic_ostreamIT_T0_ES6_)
  br label %76

76:                                               ; preds = %74, %55
  br label %77

77:                                               ; preds = %76
  %78 = load i32, i32* %4, align 4
  %79 = add nsw i32 %78, 1
  store i32 %79, i32* %4, align 4
  br label %18

80:                                               ; preds = %18
  br label %81

81:                                               ; preds = %80
  %82 = load i32, i32* %3, align 4
  %83 = add nsw i32 %82, 1
  store i32 %83, i32* %3, align 4
  br label %13

84:                                               ; preds = %13
  ret i32 0
}

declare dso_local dereferenceable(280) %"class.std::basic_istream"* @_ZNSi7getlineEPcl(%"class.std::basic_istream"*, i8*, i64) #1

; Function Attrs: nounwind readonly
declare dso_local i64 @strlen(i8*) #5

declare dso_local dereferenceable(272) %"class.std::basic_ostream"* @_ZStlsISt11char_traitsIcEERSt13basic_ostreamIcT_ES5_c(%"class.std::basic_ostream"* dereferenceable(272), i8 signext) #1

declare dso_local dereferenceable(272) %"class.std::basic_ostream"* @_ZNSolsEPFRSoS_E(%"class.std::basic_ostream"*, %"class.std::basic_ostream"* (%"class.std::basic_ostream"*)*) #1

declare dso_local dereferenceable(272) %"class.std::basic_ostream"* @_ZSt4endlIcSt11char_traitsIcEERSt13basic_ostreamIT_T0_ES6_(%"class.std::basic_ostream"* dereferenceable(272)) #1

; Function Attrs: noinline uwtable
define internal void @_GLOBAL__sub_I_769.cpp() #0 section ".text.startup" {
  call void @__cxx_global_var_init()
  ret void
}


!llvm.module.flags = !{!0}
!llvm.ident = !{!1}

!0 = !{i32 1, !"wchar_size", i32 4}
!1 = !{!"clang version 10.0.0-4ubuntu1 "}
